; Function Attrs: mustprogress uwtable
define void @_ZN3gmx22CommandLineHelpContextC2ERKNS_17HelpWriterContextE(ptr noundef nonnull writeonly align 8 captures(none) dereferenceable(8) %0, ptr noundef nonnull align 8 dereferenceable(8) %1) unnamed_addr #0 align 2 personality ptr @__gxx_personality_v0 {
  %3 = tail call noalias noundef nonnull dereferenceable(56) ptr @_Znwm(i64 noundef 56) #18
  invoke void @_ZN3gmx17HelpWriterContextC1ERKS0_(ptr noundef nonnull align 8 dereferenceable(49) %3, ptr noundef nonnull align 8 dereferenceable(8) %1)
          to label %4 unwind label %10

4:                                                ; preds = %2
  %5 = getelementptr inbounds nuw i8, ptr %3, i64 8
  %6 = getelementptr inbounds nuw i8, ptr %3, i64 24
  store ptr %6, ptr %5, align 8, !tbaa !4
  %7 = getelementptr inbounds nuw i8, ptr %3, i64 16
  store i64 0, ptr %7, align 8, !tbaa !10
  store i8 0, ptr %6, align 1, !tbaa !13
  %8 = getelementptr inbounds nuw i8, ptr %3, i64 40
  store ptr null, ptr %8, align 8, !tbaa !14
  %9 = getelementptr inbounds nuw i8, ptr %3, i64 48
  store i8 0, ptr %9, align 8, !tbaa !26
  store ptr %3, ptr %0, align 8, !tbaa !27
  ret void

10:                                               ; preds = %2
  %11 = landingpad { ptr, i32 }
          cleanup
  tail call void @_ZdlPvm(ptr noundef nonnull %3, i64 noundef 56) #20
  resume { ptr, i32 } %11
}